target datalayout = "e-m:e-p270:32:32-p271:32:32-p272:64:64-i64:64-i128:128-f80:128-n8:16:32:64-S128"
target triple = "x86_64-unknown-linux-gnu"

; Function Attrs: mustprogress uwtable
define noundef zeroext i1 @_ZN5arrow8internal25IsTensorStridesContiguousERKSt10shared_ptrINS_8DataTypeEERKSt6vectorIlSaIlEESA_(ptr noundef nonnull align 8 dereferenceable(16) %type, ptr noundef nonnull align 8 dereferenceable(24) %shape, ptr noundef nonnull align 8 dereferenceable(24) %strides) #0 {
entry:
  %type.addr = alloca ptr, align 8
  %shape.addr = alloca ptr, align 8
  %strides.addr = alloca ptr, align 8
  store ptr %type, ptr %type.addr, align 8
  store ptr %shape, ptr %shape.addr, align 8
  store ptr %strides, ptr %strides.addr, align 8
  %0 = load ptr, ptr %type.addr, align 8
  %1 = load ptr, ptr %shape.addr, align 8
  %2 = load ptr, ptr %strides.addr, align 8
  %call = call noundef zeroext i1 @_ZN5arrow12_GLOBAL__N_123IsTensorStridesRowMajorERKSt10shared_ptrINS_8DataTypeEERKSt6vectorIlSaIlEESA_(ptr noundef nonnull align 8 dereferenceable(16) %0, ptr noundef nonnull align 8 dereferenceable(24) %1, ptr noundef nonnull align 8 dereferenceable(24) %2)
  br i1 %call, label %lor.end, label %lor.rhs

lor.rhs:                                          ; preds = %entry
  %3 = load ptr, ptr %type.addr, align 8
  %4 = load ptr, ptr %shape.addr, align 8
  %5 = load ptr, ptr %strides.addr, align 8
  %call1 = call noundef zeroext i1 @_ZN5arrow12_GLOBAL__N_126IsTensorStridesColumnMajorERKSt10shared_ptrINS_8DataTypeEERKSt6vectorIlSaIlEESA_(ptr noundef nonnull align 8 dereferenceable(16) %3, ptr noundef nonnull align 8 dereferenceable(24) %4, ptr noundef nonnull align 8 dereferenceable(24) %5)
  br label %lor.end

lor.end:                                          ; preds = %lor.rhs, %entry
  %6 = phi i1 [ true, %entry ], [ %call1, %lor.rhs ]
  ret i1 %6
}