; Function Attrs: mustprogress uwtable
define noundef zeroext i1 @_ZN5arrow8internal25IsTensorStridesContiguousERKSt10shared_ptrINS_8DataTypeEERKSt6vectorIlSaIlEESA_(ptr nocapture noundef nonnull readonly align 8 dereferenceable(16) %type, ptr nocapture noundef nonnull readonly align 8 dereferenceable(24) %shape, ptr nocapture noundef nonnull readonly align 8 dereferenceable(24) %strides) local_unnamed_addr #0 {
entry:
  %type.val = load ptr, ptr %type, align 8
  %call = tail call fastcc noundef zeroext i1 @_ZN5arrow12_GLOBAL__N_123IsTensorStridesRowMajorERKSt10shared_ptrINS_8DataTypeEERKSt6vectorIlSaIlEESA_(ptr %type.val, ptr noundef nonnull align 8 dereferenceable(24) %shape, ptr noundef nonnull align 8 dereferenceable(24) %strides)
  br i1 %call, label %lor.end, label %lor.rhs

lor.rhs:                                          ; preds = %entry
  %type.val4 = load ptr, ptr %type, align 8
  %call1 = tail call fastcc noundef zeroext i1 @_ZN5arrow12_GLOBAL__N_126IsTensorStridesColumnMajorERKSt10shared_ptrINS_8DataTypeEERKSt6vectorIlSaIlEESA_(ptr %type.val4, ptr noundef nonnull align 8 dereferenceable(24) %shape, ptr noundef nonnull align 8 dereferenceable(24) %strides)
  br label %lor.end

lor.end:                                          ; preds = %lor.rhs, %entry
  %0 = phi i1 [ true, %entry ], [ %call1, %lor.rhs ]
  ret i1 %0
}